target datalayout = "e-m:e-p270:32:32-p271:32:32-p272:64:64-i64:64-i128:128-f80:128-n8:16:32:64-S128"
target triple = "x86_64-pc-linux-gnu"

%struct._lv_global_t = type { i8, i8, %struct.lv_ll_t, ptr, ptr, %struct.lv_ll_t, i8, i32, i32, ptr, %struct.lv_ll_t, ptr, %struct.lv_ll_t, ptr, ptr, i32, ptr, i8, i32, i32, ptr, i32, %struct.lv_timer_state_t, %struct.lv_anim_state_t, %struct.lv_tick_state_t, %struct._lv_draw_buf_handlers_t, %struct._lv_draw_buf_handlers_t, %struct._lv_draw_buf_handlers_t, %struct.lv_ll_t, ptr, ptr, %struct.lv_draw_global_info_t, [4 x %struct.lv_draw_sw_mask_radius_circle_dsc_t], ptr, ptr, ptr, %struct.lv_tlsf_state_t, %struct.lv_ll_t, ptr, ptr, %struct.lv_style_t, i64, ptr, i32, ptr }
%struct.lv_timer_state_t = type { %struct.lv_ll_t, i8, i8, i8, i8, i32, i8, i32, i32, i32, i32, ptr, ptr }
%struct.lv_anim_state_t = type { i8, i8, ptr, %struct.lv_ll_t }
%struct.lv_tick_state_t = type { i32, i8, ptr, ptr }
%struct._lv_draw_buf_handlers_t = type { ptr, ptr, ptr, ptr, ptr, ptr }
%struct.lv_draw_global_info_t = type { ptr, i32, i32, i32, i32, i8 }
%struct.lv_draw_sw_mask_radius_circle_dsc_t = type { ptr, ptr, ptr, ptr, i32, i32, i32 }
%struct.lv_tlsf_state_t = type { ptr, i64, i64, %struct.lv_ll_t }
%struct.lv_ll_t = type { i32, ptr, ptr }
%struct.lv_style_t = type { ptr, i32, i8 }
%struct._lv_image_cache_data_t = type { %struct._lv_cache_slot_size_t, ptr, i32, ptr, ptr, ptr }
%struct._lv_cache_slot_size_t = type { i64 }

@lv_global = external global %struct._lv_global_t, align 8

; Function Attrs: nounwind uwtable
define ptr @lv_image_decoder_add_to_cache(ptr noundef %0, ptr noundef %1, ptr noundef %2, ptr noundef %3) #0 {
  %5 = alloca ptr, align 8
  %6 = alloca ptr, align 8
  %7 = alloca ptr, align 8
  %8 = alloca ptr, align 8
  %9 = alloca ptr, align 8
  %10 = alloca ptr, align 8
  %11 = alloca i32, align 4
  %12 = alloca ptr, align 8
  store ptr %0, ptr %6, align 8, !tbaa !44
  store ptr %1, ptr %7, align 8, !tbaa !84
  store ptr %2, ptr %8, align 8, !tbaa !91
  store ptr %3, ptr %9, align 8, !tbaa !32
  call void @llvm.lifetime.start.p0(i64 8, ptr %10) #5
  %13 = load ptr, ptr getelementptr inbounds nuw (%struct._lv_global_t, ptr @lv_global, i32 0, i32 29), align 8, !tbaa !7
  %14 = load ptr, ptr %7, align 8, !tbaa !84
  %15 = call ptr @lv_cache_add(ptr noundef %13, ptr noundef %14, ptr noundef null)
  store ptr %15, ptr %10, align 8, !tbaa !56
  %16 = load ptr, ptr %10, align 8, !tbaa !56
  %17 = icmp eq ptr %16, null
  br i1 %17, label %18, label %19

18:                                               ; preds = %4
  store ptr null, ptr %5, align 8
  store i32 1, ptr %11, align 4
  br label %44

19:                                               ; preds = %4
  call void @llvm.lifetime.start.p0(i64 8, ptr %12) #5
  %20 = load ptr, ptr %10, align 8, !tbaa !56
  %21 = call ptr @lv_cache_entry_get_data(ptr noundef %20)
  store ptr %21, ptr %12, align 8, !tbaa !84
  %22 = load ptr, ptr %8, align 8, !tbaa !91
  %23 = load ptr, ptr %12, align 8, !tbaa !84
  %24 = getelementptr inbounds nuw %struct._lv_image_cache_data_t, ptr %23, i32 0, i32 3
  store ptr %22, ptr %24, align 8, !tbaa !86
  %25 = load ptr, ptr %12, align 8, !tbaa !84
  %26 = getelementptr inbounds nuw %struct._lv_image_cache_data_t, ptr %25, i32 0, i32 2
  %27 = load i32, ptr %26, align 8, !tbaa !80
  %28 = icmp eq i32 %27, 1
  br i1 %28, label %29, label %36

29:                                               ; preds = %19
  %30 = load ptr, ptr %12, align 8, !tbaa !84
  %31 = getelementptr inbounds nuw %struct._lv_image_cache_data_t, ptr %30, i32 0, i32 1
  %32 = load ptr, ptr %31, align 8, !tbaa !83
  %33 = call ptr @lv_strdup(ptr noundef %32)
  %34 = load ptr, ptr %12, align 8, !tbaa !84
  %35 = getelementptr inbounds nuw %struct._lv_image_cache_data_t, ptr %34, i32 0, i32 1
  store ptr %33, ptr %35, align 8, !tbaa !83
  br label %36

36:                                               ; preds = %29, %19
  %37 = load ptr, ptr %9, align 8, !tbaa !32
  %38 = load ptr, ptr %12, align 8, !tbaa !84
  %39 = getelementptr inbounds nuw %struct._lv_image_cache_data_t, ptr %38, i32 0, i32 5
  store ptr %37, ptr %39, align 8, !tbaa !92
  %40 = load ptr, ptr %6, align 8, !tbaa !44
  %41 = load ptr, ptr %12, align 8, !tbaa !84
  %42 = getelementptr inbounds nuw %struct._lv_image_cache_data_t, ptr %41, i32 0, i32 4
  store ptr %40, ptr %42, align 8, !tbaa !87
  %43 = load ptr, ptr %10, align 8, !tbaa !56
  store ptr %43, ptr %5, align 8
  store i32 1, ptr %11, align 4
  call void @llvm.lifetime.end.p0(i64 8, ptr %12) #5
  br label %44

44:                                               ; preds = %36, %18
  call void @llvm.lifetime.end.p0(i64 8, ptr %10) #5
  %45 = load ptr, ptr %5, align 8
  ret ptr %45
}