; Function Attrs: nounwind uwtable
define ptr @lv_image_decoder_add_to_cache(ptr noundef %0, ptr noundef %1, ptr noundef %2, ptr noundef %3) local_unnamed_addr #0 {
  %5 = load ptr, ptr getelementptr inbounds nuw (i8, ptr @lv_global, i64 520), align 8, !tbaa !3
  %6 = tail call ptr @lv_cache_add(ptr noundef %5, ptr noundef %1, ptr noundef null) #6
  %7 = icmp eq ptr %6, null
  br i1 %7, label %21, label %8

8:                                                ; preds = %4
  %9 = tail call ptr @lv_cache_entry_get_data(ptr noundef nonnull %6) #6
  %10 = getelementptr inbounds nuw i8, ptr %9, i64 24
  store ptr %2, ptr %10, align 8, !tbaa !63
  %11 = getelementptr inbounds nuw i8, ptr %9, i64 16
  %12 = load i32, ptr %11, align 8, !tbaa !59
  %13 = icmp eq i32 %12, 1
  br i1 %13, label %14, label %18

14:                                               ; preds = %8
  %15 = getelementptr inbounds nuw i8, ptr %9, i64 8
  %16 = load ptr, ptr %15, align 8, !tbaa !62
  %17 = tail call ptr @lv_strdup(ptr noundef %16) #6
  store ptr %17, ptr %15, align 8, !tbaa !62
  br label %18

18:                                               ; preds = %14, %8
  %19 = getelementptr inbounds nuw i8, ptr %9, i64 40
  store ptr %3, ptr %19, align 8, !tbaa !73
  %20 = getelementptr inbounds nuw i8, ptr %9, i64 32
  store ptr %0, ptr %20, align 8, !tbaa !65
  br label %21

21:                                               ; preds = %4, %18
  ret ptr %6
}